; Function Attrs: mustprogress nofree norecurse nosync nounwind willreturn memory(none) uwtable
define noundef i64 @_ZN11OpenImageIO6v3_1_014tiff_data_sizeE12TIFFDataType(i32 noundef %0) local_unnamed_addr #11 {
  %or.cond = icmp ugt i32 %0, 13
  br i1 %or.cond, label %6, label %2

2:                                                ; preds = %1
  %3 = zext nneg i32 %0 to i64
  %4 = getelementptr inbounds nuw [14 x i64], ptr @_ZZN11OpenImageIO6v3_1_014tiff_data_sizeE12TIFFDataTypeE5sizes, i64 0, i64 %3
  %5 = load i64, ptr %4, align 8, !tbaa !52
  br label %6

6:                                                ; preds = %1, %2
  %.0 = phi i64 [ %5, %2 ], [ -1, %1 ]
  ret i64 %.0
}